target datalayout = "e-m:e-p270:32:32-p271:32:32-p272:64:64-i64:64-i128:128-f80:128-n8:16:32:64-S128"
target triple = "x86_64-pc-linux-gnu"

%"class.std::__cxx11::basic_string" = type { %"struct.std::__cxx11::basic_string<char>::_Alloc_hider", i64, %union.anon }
%"struct.std::__cxx11::basic_string<char>::_Alloc_hider" = type { ptr }
%union.anon = type { i64, [8 x i8] }
%"class.Imf_3_4::(anonymous namespace)::MemAttrStream" = type { %"class.Imf_3_4::IStream", ptr, i64, i64 }
%"class.Imf_3_4::IStream" = type { ptr, %"class.std::__cxx11::basic_string" }

@_ZTIN7Iex_3_48InputExcE = external constant ptr
@.str.56 = private unnamed_addr constant [24 x i8] c"Unexpected end of file.\00", align 1
@.str.57 = private unnamed_addr constant [26 x i8] c"Reading past end of file.\00", align 1

; Function Attrs: mustprogress uwtable
define internal noundef ptr @_ZN7Imf_3_412_GLOBAL__N_113MemAttrStream16readMemoryMappedEi(ptr noundef nonnull align 8 dereferenceable(64) %0, i32 noundef %1) unnamed_addr #4 align 2 personality ptr @__gxx_personality_v0 {
  %3 = alloca ptr, align 8
  %4 = alloca i32, align 4
  %5 = alloca ptr, align 8
  %6 = alloca i32, align 4
  %7 = alloca ptr, align 8
  store ptr %0, ptr %3, align 8, !tbaa !209
  store i32 %1, ptr %4, align 4, !tbaa !19
  %8 = load ptr, ptr %3, align 8
  %9 = getelementptr inbounds nuw %"class.Imf_3_4::(anonymous namespace)::MemAttrStream", ptr %8, i32 0, i32 3
  %10 = load i64, ptr %9, align 8, !tbaa !217
  %11 = getelementptr inbounds nuw %"class.Imf_3_4::(anonymous namespace)::MemAttrStream", ptr %8, i32 0, i32 2
  %12 = load i64, ptr %11, align 8, !tbaa !216
  %13 = icmp uge i64 %10, %12
  br i1 %13, label %14, label %21

14:                                               ; preds = %2
  %15 = call ptr @__cxa_allocate_exception(i64 72) #3
  invoke void @_ZN7Iex_3_48InputExcC1EPKc(ptr noundef nonnull align 8 dereferenceable(72) %15, ptr noundef @.str.56)
          to label %16 unwind label %17

16:                                               ; preds = %14
  call void @__cxa_throw(ptr %15, ptr @_ZTIN7Iex_3_48InputExcE, ptr @_ZN7Iex_3_48InputExcD1Ev) #23
  unreachable

17:                                               ; preds = %14
  %18 = landingpad { ptr, i32 }
          cleanup
  %19 = extractvalue { ptr, i32 } %18, 0
  store ptr %19, ptr %5, align 8
  %20 = extractvalue { ptr, i32 } %18, 1
  store i32 %20, ptr %6, align 4
  call void @__cxa_free_exception(ptr %15) #3
  br label %49

21:                                               ; preds = %2
  %22 = getelementptr inbounds nuw %"class.Imf_3_4::(anonymous namespace)::MemAttrStream", ptr %8, i32 0, i32 3
  %23 = load i64, ptr %22, align 8, !tbaa !217
  %24 = load i32, ptr %4, align 4, !tbaa !19
  %25 = sext i32 %24 to i64
  %26 = add i64 %23, %25
  %27 = getelementptr inbounds nuw %"class.Imf_3_4::(anonymous namespace)::MemAttrStream", ptr %8, i32 0, i32 2
  %28 = load i64, ptr %27, align 8, !tbaa !216
  %29 = icmp ugt i64 %26, %28
  br i1 %29, label %30, label %37

30:                                               ; preds = %21
  %31 = call ptr @__cxa_allocate_exception(i64 72) #3
  invoke void @_ZN7Iex_3_48InputExcC1EPKc(ptr noundef nonnull align 8 dereferenceable(72) %31, ptr noundef @.str.57)
          to label %32 unwind label %33

32:                                               ; preds = %30
  call void @__cxa_throw(ptr %31, ptr @_ZTIN7Iex_3_48InputExcE, ptr @_ZN7Iex_3_48InputExcD1Ev) #23
  unreachable

33:                                               ; preds = %30
  %34 = landingpad { ptr, i32 }
          cleanup
  %35 = extractvalue { ptr, i32 } %34, 0
  store ptr %35, ptr %5, align 8
  %36 = extractvalue { ptr, i32 } %34, 1
  store i32 %36, ptr %6, align 4
  call void @__cxa_free_exception(ptr %31) #3
  br label %49

37:                                               ; preds = %21
  call void @llvm.lifetime.start.p0(i64 8, ptr %7) #3
  %38 = getelementptr inbounds nuw %"class.Imf_3_4::(anonymous namespace)::MemAttrStream", ptr %8, i32 0, i32 1
  %39 = load ptr, ptr %38, align 8, !tbaa !211
  %40 = getelementptr inbounds nuw %"class.Imf_3_4::(anonymous namespace)::MemAttrStream", ptr %8, i32 0, i32 3
  %41 = load i64, ptr %40, align 8, !tbaa !217
  %42 = getelementptr inbounds nuw i8, ptr %39, i64 %41
  store ptr %42, ptr %7, align 8, !tbaa !15
  %43 = load i32, ptr %4, align 4, !tbaa !19
  %44 = sext i32 %43 to i64
  %45 = getelementptr inbounds nuw %"class.Imf_3_4::(anonymous namespace)::MemAttrStream", ptr %8, i32 0, i32 3
  %46 = load i64, ptr %45, align 8, !tbaa !217
  %47 = add i64 %46, %44
  store i64 %47, ptr %45, align 8, !tbaa !217
  %48 = load ptr, ptr %7, align 8, !tbaa !15
  call void @llvm.lifetime.end.p0(i64 8, ptr %7) #3
  ret ptr %48

49:                                               ; preds = %33, %17
  %50 = load ptr, ptr %5, align 8
  %51 = load i32, ptr %6, align 4
  %52 = insertvalue { ptr, i32 } poison, ptr %50, 0
  %53 = insertvalue { ptr, i32 } %52, i32 %51, 1
  resume { ptr, i32 } %53
}